; Function Attrs: nounwind uwtable
define internal fastcc range(i32 0, 2) i32 @do_dsa_print(ptr noundef %0, ptr noundef %1, i32 noundef %2, i32 noundef range(i32 0, 3) %3) unnamed_addr #0 {
  %5 = getelementptr inbounds nuw i8, ptr %1, i64 8
  %6 = load ptr, ptr %5, align 8, !tbaa !37
  %.not = icmp eq ptr %6, null
  br i1 %.not, label %9, label %7

7:                                                ; preds = %4
  %8 = tail call i32 @DSA_bits(ptr noundef nonnull %1) #5
  br label %9

9:                                                ; preds = %7, %4
  %.0 = phi i32 [ %8, %7 ], [ 0, %4 ]
  switch i32 %3, label %.thread50 [
    i32 2, label %12
    i32 0, label %.thread40
  ]

.thread50:                                        ; preds = %9
  %10 = getelementptr inbounds nuw i8, ptr %1, i64 104
  %11 = load ptr, ptr %10, align 8, !tbaa !17
  br label %.thread40

12:                                               ; preds = %9
  %13 = getelementptr inbounds nuw i8, ptr %1, i64 112
  %14 = load ptr, ptr %13, align 8, !tbaa !40
  %15 = getelementptr inbounds nuw i8, ptr %1, i64 104
  %16 = load ptr, ptr %15, align 8, !tbaa !17
  %.not31 = icmp eq ptr %14, null
  br i1 %.not31, label %.thread40, label %17

17:                                               ; preds = %12
  %18 = tail call i32 @BIO_indent(ptr noundef %0, i32 noundef %2, i32 noundef 128) #5
  %.not32 = icmp eq i32 %18, 0
  br i1 %.not32, label %30, label %19

19:                                               ; preds = %17
  %20 = tail call i32 (ptr, ptr, ...) @BIO_printf(ptr noundef %0, ptr noundef nonnull @.str.6, ptr noundef nonnull @.str.3, i32 noundef %.0) #5
  %21 = icmp slt i32 %20, 1
  br i1 %21, label %30, label %24

.thread40:                                        ; preds = %9, %.thread50, %12
  %.02549 = phi ptr [ %16, %12 ], [ %11, %.thread50 ], [ null, %9 ]
  %22 = tail call i32 (ptr, ptr, ...) @BIO_printf(ptr noundef %0, ptr noundef nonnull @.str.7, i32 noundef %.0) #5
  %23 = icmp slt i32 %22, 1
  br i1 %23, label %30, label %24

24:                                               ; preds = %.thread40, %19
  %.02548 = phi ptr [ %.02549, %.thread40 ], [ %16, %19 ]
  %.0263946 = phi ptr [ null, %.thread40 ], [ %14, %19 ]
  %25 = tail call i32 @ASN1_bn_print(ptr noundef %0, ptr noundef nonnull @.str.8, ptr noundef %.0263946, ptr noundef null, i32 noundef %2) #5
  %.not33 = icmp eq i32 %25, 0
  br i1 %.not33, label %30, label %26

26:                                               ; preds = %24
  %27 = tail call i32 @ASN1_bn_print(ptr noundef %0, ptr noundef nonnull @.str.9, ptr noundef %.02548, ptr noundef null, i32 noundef %2) #5
  %.not34 = icmp eq i32 %27, 0
  br i1 %.not34, label %30, label %28

28:                                               ; preds = %26
  %29 = tail call i32 @ossl_ffc_params_print(ptr noundef %0, ptr noundef nonnull %5, i32 noundef %2) #5
  %.not35 = icmp ne i32 %29, 0
  %spec.select = zext i1 %.not35 to i32
  br label %30

30:                                               ; preds = %28, %26, %24, %.thread40, %19, %17
  %.028 = phi i32 [ 0, %19 ], [ 0, %26 ], [ 0, %24 ], [ 0, %17 ], [ 0, %.thread40 ], [ %spec.select, %28 ]
  ret i32 %.028
}